target datalayout = "e-m:e-p270:32:32-p271:32:32-p272:64:64-i64:64-i128:128-f80:128-n8:16:32:64-S128"
target triple = "x86_64-pc-linux-gnu"

@.str.12 = private unnamed_addr constant [17 x i8] c"supplementalData\00", align 1
@.str.13 = private unnamed_addr constant [12 x i8] c"cldrVersion\00", align 1

; Function Attrs: inlinehint mustprogress nounwind uwtable
define internal noundef signext i8 @_ZL9U_FAILURE10UErrorCode(i32 noundef %0) #2 {
  %2 = alloca i32, align 4
  store i32 %0, ptr %2, align 4, !tbaa !15
  %3 = load i32, ptr %2, align 4, !tbaa !15
  %4 = icmp sgt i32 %3, 0
  %5 = zext i1 %4 to i8
  ret i8 %5
}

; Function Attrs: mustprogress uwtable
define void @ulocdata_getCLDRVersion_77(ptr noundef %0, ptr noundef %1) #1 {
  %3 = alloca ptr, align 8
  %4 = alloca ptr, align 8
  %5 = alloca ptr, align 8
  store ptr %0, ptr %3, align 8, !tbaa !17
  store ptr %1, ptr %4, align 8, !tbaa !22
  %6 = load ptr, ptr %4, align 8, !tbaa !22
  %7 = load i32, ptr %6, align 4, !tbaa !15
  %8 = call noundef signext i8 @_ZL9U_FAILURE10UErrorCode(i32 noundef %7)
  %9 = icmp ne i8 %8, 0
  br i1 %9, label %10, label %11

10:                                               ; preds = %2
  br label %18

11:                                               ; preds = %2
  call void @llvm.lifetime.start.p0(i64 8, ptr %5) #9
  store ptr null, ptr %5, align 8, !tbaa !39
  %12 = load ptr, ptr %4, align 8, !tbaa !22
  %13 = call ptr @ures_openDirect_77(ptr noundef null, ptr noundef @.str.12, ptr noundef %12)
  store ptr %13, ptr %5, align 8, !tbaa !39
  %14 = load ptr, ptr %5, align 8, !tbaa !39
  %15 = load ptr, ptr %3, align 8, !tbaa !17
  %16 = load ptr, ptr %4, align 8, !tbaa !22
  call void @ures_getVersionByKey_77(ptr noundef %14, ptr noundef @.str.13, ptr noundef %15, ptr noundef %16)
  %17 = load ptr, ptr %5, align 8, !tbaa !39
  call void @ures_close_77(ptr noundef %17)
  call void @llvm.lifetime.end.p0(i64 8, ptr %5) #9
  br label %18

18:                                               ; preds = %11, %10
  ret void
}