; Function Attrs: mustprogress uwtable
define void @ulocdata_getCLDRVersion_77(ptr noundef %0, ptr noundef %1) local_unnamed_addr #1 {
  %3 = load i32, ptr %1, align 4, !tbaa !13
  %4 = icmp slt i32 %3, 1
  br i1 %4, label %5, label %7

5:                                                ; preds = %2
  %6 = tail call ptr @ures_openDirect_77(ptr noundef null, ptr noundef nonnull @.str.12, ptr noundef nonnull %1)
  tail call void @ures_getVersionByKey_77(ptr noundef %6, ptr noundef nonnull @.str.13, ptr noundef %0, ptr noundef nonnull %1)
  tail call void @ures_close_77(ptr noundef %6)
  br label %7

7:                                                ; preds = %2, %5
  ret void
}